; Function Attrs: mustprogress nounwind uwtable
define dso_local void @_ZNK5clang7CodeGen7ABIInfo23appendAttributeManglingEPNS_16TargetClonesAttrEjRN4llvm11raw_ostreamE(ptr noundef nonnull align 8 dereferenceable(20) %0, ptr noundef %1, i32 noundef %2, ptr noundef nonnull align 8 dereferenceable(48) %3) unnamed_addr #3 align 2 {
  %5 = getelementptr inbounds nuw i8, ptr %1, i64 40
  %6 = load ptr, ptr %5, align 8
  %7 = zext i32 %2 to i64
  %8 = getelementptr inbounds %"class.llvm::StringRef", ptr %6, i64 %7
  %.sroa.0.0.copyload.i = load ptr, ptr %8, align 8
  %.sroa.2.0..sroa_idx.i = getelementptr inbounds i8, ptr %8, i64 8
  %.sroa.2.0.copyload.i = load i64, ptr %.sroa.2.0..sroa_idx.i, align 8
  %9 = load ptr, ptr %0, align 8
  %10 = getelementptr inbounds i8, ptr %9, i64 96
  %11 = load ptr, ptr %10, align 8
  tail call void %11(ptr noundef nonnull align 8 dereferenceable(20) %0, ptr %.sroa.0.0.copyload.i, i64 %.sroa.2.0.copyload.i, ptr noundef nonnull align 8 dereferenceable(48) %3) #17
  %12 = getelementptr inbounds nuw i8, ptr %3, i64 32
  %13 = load ptr, ptr %12, align 8
  %14 = getelementptr inbounds nuw i8, ptr %3, i64 24
  %15 = load ptr, ptr %14, align 8
  %.not.i = icmp ult ptr %13, %15
  br i1 %.not.i, label %18, label %16

16:                                               ; preds = %4
  %17 = tail call noundef nonnull align 8 dereferenceable(48) ptr @_ZN4llvm11raw_ostream5writeEh(ptr noundef nonnull align 8 dereferenceable(48) %3, i8 noundef zeroext 46) #17
  br label %_ZN4llvm11raw_ostreamlsEc.exit

18:                                               ; preds = %4
  %19 = getelementptr inbounds i8, ptr %13, i64 1
  store ptr %19, ptr %12, align 8
  store i8 46, ptr %13, align 1
  br label %_ZN4llvm11raw_ostreamlsEc.exit

_ZN4llvm11raw_ostreamlsEc.exit:                   ; preds = %16, %18
  %.0.i = phi ptr [ %17, %16 ], [ %3, %18 ]
  %20 = tail call noundef i32 @_ZNK5clang16TargetClonesAttr15getMangledIndexEj(ptr noundef nonnull align 8 dereferenceable(48) %1, i32 noundef %2)
  %21 = zext i32 %20 to i64
  %22 = tail call noundef nonnull align 8 dereferenceable(48) ptr @_ZN4llvm11raw_ostreamlsEm(ptr noundef nonnull align 8 dereferenceable(48) %.0.i, i64 noundef %21) #17
  ret void
}